; Function Attrs: mustprogress uwtable
define void @_ZN5arrow20DayTimeIntervalArrayC2ERKSt10shared_ptrINS_9ArrayDataEE(ptr noundef nonnull align 8 dereferenceable(40) initializes((0, 40)) %0, ptr noundef nonnull align 8 dereferenceable(16) %1) unnamed_addr #1 align 2 personality ptr @__gxx_personality_v0 {
  %3 = getelementptr inbounds nuw i8, ptr %0, i64 8
  tail call void @llvm.memset.p0.i64(ptr noundef nonnull align 8 dereferenceable(24) %3, i8 0, i64 24, i1 false)
  %4 = getelementptr inbounds nuw i8, ptr %0, i64 32
  store ptr null, ptr %4, align 8, !tbaa !74
  store ptr getelementptr inbounds nuw inrange(-16, 16) (i8, ptr @_ZTVN5arrow20DayTimeIntervalArrayE, i64 16), ptr %0, align 8, !tbaa !32
  invoke void @_ZN5arrow5Array7SetDataERKSt10shared_ptrINS_9ArrayDataEE(ptr noundef nonnull align 8 dereferenceable(40) %0, ptr noundef nonnull align 8 dereferenceable(16) %1)
          to label %.noexc unwind label %18

.noexc:                                           ; preds = %2
  %5 = load ptr, ptr %1, align 8, !tbaa !53
  %6 = getelementptr inbounds nuw i8, ptr %5, i64 40
  %7 = load ptr, ptr %6, align 8, !tbaa !46
  %8 = getelementptr inbounds nuw i8, ptr %7, i64 16
  %9 = load ptr, ptr %8, align 8, !tbaa !43
  %.not.i.i = icmp eq ptr %9, null
  br i1 %.not.i.i, label %17, label %10

10:                                               ; preds = %.noexc
  %11 = getelementptr inbounds nuw i8, ptr %9, i64 9
  %12 = load i8, ptr %11, align 1, !tbaa !56, !range !65, !noundef !66
  %13 = trunc nuw i8 %12 to i1
  br i1 %13, label %14, label %17

14:                                               ; preds = %10
  %15 = getelementptr inbounds nuw i8, ptr %9, i64 16
  %16 = load ptr, ptr %15, align 8
  br label %17

17:                                               ; preds = %14, %10, %.noexc
  %.0.i.i = phi ptr [ %16, %14 ], [ null, %10 ], [ null, %.noexc ]
  store ptr %.0.i.i, ptr %4, align 8, !tbaa !74
  ret void

18:                                               ; preds = %2
  %19 = landingpad { ptr, i32 }
          cleanup
  tail call void @_ZN5arrow5ArrayD2Ev(ptr noundef nonnull align 8 dereferenceable(40) %0) #12
  resume { ptr, i32 } %19
}